; Function Attrs: nounwind uwtable
define void @wolfSSL_SNI_SetOptions(ptr noundef readonly captures(address_is_null) %0, i8 noundef zeroext %1, i8 noundef zeroext %2) local_unnamed_addr #0 {
  %.not = icmp eq ptr %0, null
  br i1 %.not, label %8, label %4

4:                                                ; preds = %3
  %5 = getelementptr inbounds nuw i8, ptr %0, i64 1224
  %6 = load ptr, ptr %5, align 8, !tbaa !165
  %.not5 = icmp eq ptr %6, null
  br i1 %.not5, label %8, label %7

7:                                                ; preds = %4
  tail call void @TLSX_SNI_SetOptions(ptr noundef nonnull %6, i8 noundef zeroext %1, i8 noundef zeroext %2) #22
  br label %8

8:                                                ; preds = %7, %4, %3
  ret void
}